; Function Attrs: nounwind uwtable
define dso_local ptr @ExecGetExtraUpdatedCols(ptr noundef %0, ptr noundef %1) local_unnamed_addr #0 {
  %3 = getelementptr inbounds nuw i8, ptr %0, i64 56
  %4 = load i8, ptr %3, align 8, !range !8, !noundef !9
  %5 = trunc nuw i8 %4 to i1
  br i1 %5, label %7, label %6

6:                                                ; preds = %2
  tail call void @ExecInitGenerated(ptr noundef nonnull %0, ptr noundef %1, i32 noundef 2) #12
  br label %7

7:                                                ; preds = %6, %2
  %8 = getelementptr inbounds nuw i8, ptr %0, i64 48
  %9 = load ptr, ptr %8, align 8
  ret ptr %9
}